; Function Attrs: null_pointer_is_valid sspstrong uwtable
define internal fastcc range(i32 0, 39) i32 @dissect_s5066dts_exp_ack_only(ptr noundef %0, i32 noundef range(i32 6, 14) %1, ptr noundef %2, i32 noundef range(i32 0, 32) %3) unnamed_addr #0 {
  %5 = add nsw i32 %3, -7
  %6 = load i32, ptr @hf_s5066dts_exp_ack_only_rx_lwe, align 4
  %7 = tail call ptr @proto_tree_add_item(ptr noundef %2, i32 noundef %6, ptr noundef %0, i32 noundef %1, i32 noundef 1, i32 noundef 0)
  %8 = add nuw nsw i32 %1, 1
  %.not = icmp eq i32 %5, 0
  br i1 %.not, label %12, label %9

9:                                                ; preds = %4
  %10 = load i32, ptr @hf_s5066dts_exp_ack_only_acks, align 4
  %11 = tail call ptr @proto_tree_add_item(ptr noundef %2, i32 noundef %10, ptr noundef %0, i32 noundef %8, i32 noundef %5, i32 noundef 0)
  br label %12

12:                                               ; preds = %9, %4
  %13 = add nsw i32 %5, %8
  ret i32 %13
}